; Function Attrs: mustprogress nounwind uwtable
define hidden noundef ptr @_ZN5Parse15make_node_notesEP10Node_Notes(ptr nocapture noundef nonnull readonly align 8 dereferenceable(352) %0, ptr noundef readonly %1) local_unnamed_addr #0 align 2 {
  %3 = icmp eq ptr %1, null
  br i1 %3, label %43, label %4

4:                                                ; preds = %2
  %5 = getelementptr inbounds i8, ptr %0, i64 16
  %6 = load ptr, ptr %5, align 8
  %7 = getelementptr inbounds i8, ptr %6, i64 336
  %8 = load ptr, ptr %7, align 8
  %9 = getelementptr inbounds i8, ptr %6, i64 328
  %10 = load ptr, ptr %9, align 8
  %11 = ptrtoint ptr %8 to i64
  %12 = ptrtoint ptr %10 to i64
  %13 = sub i64 %11, %12
  %.not.i.i.i = icmp ult i64 %13, 8
  br i1 %.not.i.i.i, label %16, label %14

14:                                               ; preds = %4
  %15 = getelementptr inbounds i8, ptr %10, i64 8
  store ptr %15, ptr %9, align 8
  br label %_ZN10Node_Notes5cloneEP7Compile.exit

16:                                               ; preds = %4
  %17 = getelementptr inbounds i8, ptr %6, i64 296
  %18 = tail call noundef ptr @_ZN5Arena4growEmN17AllocFailStrategy13AllocFailEnumE(ptr noundef nonnull align 8 dereferenceable(48) %17, i64 noundef 8, i32 noundef 0) #14
  br label %_ZN10Node_Notes5cloneEP7Compile.exit

_ZN10Node_Notes5cloneEP7Compile.exit:             ; preds = %14, %16
  %.0.i.i.i = phi ptr [ %10, %14 ], [ %18, %16 ]
  %19 = load i64, ptr %1, align 8
  store i64 %19, ptr %.0.i.i.i, align 8
  %.cast = inttoptr i64 %19 to ptr
  %20 = load ptr, ptr %5, align 8
  %21 = getelementptr inbounds i8, ptr %20, i64 336
  %22 = load ptr, ptr %21, align 8
  %23 = getelementptr inbounds i8, ptr %20, i64 328
  %24 = load ptr, ptr %23, align 8
  %25 = ptrtoint ptr %22 to i64
  %26 = ptrtoint ptr %24 to i64
  %27 = sub i64 %25, %26
  %.not.i.i.i13 = icmp ult i64 %27, 64
  br i1 %.not.i.i.i13, label %30, label %28

28:                                               ; preds = %_ZN10Node_Notes5cloneEP7Compile.exit
  %29 = getelementptr inbounds i8, ptr %24, i64 64
  store ptr %29, ptr %23, align 8
  br label %_ZN8JVMStatenwEmP7Compile.exit

30:                                               ; preds = %_ZN10Node_Notes5cloneEP7Compile.exit
  %31 = getelementptr inbounds i8, ptr %20, i64 296
  %32 = tail call noundef ptr @_ZN5Arena4growEmN17AllocFailStrategy13AllocFailEnumE(ptr noundef nonnull align 8 dereferenceable(48) %31, i64 noundef 64, i32 noundef 0) #14
  br label %_ZN8JVMStatenwEmP7Compile.exit

_ZN8JVMStatenwEmP7Compile.exit:                   ; preds = %28, %30
  %.0.i.i.i14 = phi ptr [ %24, %28 ], [ %32, %30 ]
  %33 = icmp ne ptr %.0.i.i.i14, null
  tail call void @llvm.assume(i1 %33)
  %34 = getelementptr inbounds i8, ptr %0, i64 64
  %35 = load ptr, ptr %34, align 8
  tail call void @_ZN8JVMStateC1EP8ciMethodPS_(ptr noundef nonnull align 8 dereferenceable(64) %.0.i.i.i14, ptr noundef %35, ptr noundef %.cast) #14
  %36 = getelementptr inbounds i8, ptr %.0.i.i.i14, i64 12
  %37 = getelementptr inbounds i8, ptr %0, i64 120
  tail call void @llvm.memset.p0.i64(ptr noundef nonnull align 4 dereferenceable(20) %36, i8 0, i64 20, i1 false)
  %38 = load i32, ptr %37, align 8
  %39 = getelementptr inbounds i8, ptr %.0.i.i.i14, i64 36
  %40 = load i32, ptr %39, align 4
  %.not.i = icmp eq i32 %40, %38
  br i1 %.not.i, label %_ZN8JVMState7set_bciEi.exit, label %41

41:                                               ; preds = %_ZN8JVMStatenwEmP7Compile.exit
  %42 = getelementptr inbounds i8, ptr %.0.i.i.i14, i64 40
  store i32 -1, ptr %42, align 8
  br label %_ZN8JVMState7set_bciEi.exit

_ZN8JVMState7set_bciEi.exit:                      ; preds = %_ZN8JVMStatenwEmP7Compile.exit, %41
  store i32 %38, ptr %39, align 4
  store ptr %.0.i.i.i14, ptr %.0.i.i.i, align 8
  br label %43

43:                                               ; preds = %2, %_ZN8JVMState7set_bciEi.exit
  %.0 = phi ptr [ %.0.i.i.i, %_ZN8JVMState7set_bciEi.exit ], [ null, %2 ]
  ret ptr %.0
}